target datalayout = "e-m:e-p270:32:32-p271:32:32-p272:64:64-i64:64-i128:128-f80:128-n8:16:32:64-S128"
target triple = "x86_64-pc-linux-gnu"

%struct.darktable_t = type { %struct.dt_codepath_t, i32, i32, ptr, ptr, ptr, ptr, ptr, ptr, ptr, ptr, ptr, ptr, ptr, ptr, ptr, ptr, ptr, ptr, ptr, ptr, ptr, ptr, ptr, ptr, ptr, ptr, ptr, ptr, ptr, [64 x %struct.dt_pthread_mutex_t], %struct.dt_pthread_mutex_t, %struct.dt_pthread_mutex_t, %struct.dt_pthread_mutex_t, %struct.dt_pthread_mutex_t, %struct.dt_pthread_mutex_t, ptr, ptr, ptr, ptr, ptr, ptr, ptr, ptr, ptr, ptr, ptr, ptr, ptr, %struct.dt_lua_state_t, ptr, double, ptr, i32, [47 x i32], i32, i32, ptr, ptr, %struct.dt_sys_resources_t, %struct.dt_backthumb_t, %struct.dt_gimp_t }
%struct.dt_codepath_t = type { i8, [3 x i8] }
%struct.dt_pthread_mutex_t = type { %union.pthread_mutex_t }
%union.pthread_mutex_t = type { %struct.__pthread_mutex_s }
%struct.__pthread_mutex_s = type { i32, i32, i32, i32, i32, i16, i16, %struct.__pthread_internal_list }
%struct.__pthread_internal_list = type { ptr, ptr }
%struct.dt_lua_state_t = type { i32 }
%struct.dt_sys_resources_t = type { i64, i64, ptr, ptr, i32 }
%struct.dt_backthumb_t = type { double, double, i32, i32, i32, i32 }
%struct.dt_gimp_t = type { i32, ptr, ptr, i32, i32 }
%struct.dt_iop_module_t = type { i32, ptr, ptr, ptr, ptr, ptr, ptr, ptr, ptr, ptr, ptr, ptr, ptr, ptr, ptr, ptr, ptr, ptr, ptr, ptr, ptr, ptr, ptr, ptr, ptr, ptr, ptr, ptr, ptr, ptr, ptr, ptr, ptr, ptr, ptr, ptr, ptr, ptr, ptr, ptr, ptr, ptr, ptr, ptr, ptr, ptr, ptr, ptr, ptr, ptr, ptr, ptr, ptr, ptr, ptr, ptr, ptr, [20 x i8], i32, i32, i32, i32, i32, i32, i32, [8 x i8], [4 x float], [4 x float], [4 x float], [4 x float], [4 x float], [4 x float], ptr, %struct.dt_dev_histogram_stats_t, [4 x i32], i32, i32, ptr, i32, i32, ptr, ptr, i32, ptr, %struct.dt_pthread_mutex_t, ptr, ptr, ptr, ptr, %struct.anon, ptr, ptr, ptr, ptr, ptr, ptr, ptr, i32, ptr, ptr, ptr, ptr, ptr, ptr, ptr, i32, ptr, i32, [128 x i8], i32, ptr, ptr, i32, [12 x i8] }
%struct.dt_dev_histogram_stats_t = type { i32, i64, i32, i32 }
%struct.anon = type { %struct.anon.0, %struct.anon.1 }
%struct.anon.0 = type { ptr, ptr }
%struct.anon.1 = type { ptr, i32 }
%struct.dt_iop_rgblevels_gui_data_t = type { %struct.dt_iop_rgblevels_params_t, ptr, ptr, ptr, ptr, ptr, ptr, i32, i32, float, float, float, float, [4 x float], i32, double, double, i32, i32, float, i32, float, ptr, ptr, ptr }
%struct.dt_iop_rgblevels_params_t = type { i32, i32, [3 x [3 x float]] }
%struct.dt_develop_t = type { i32, i32, i32, ptr, double, double, i32, i32, i32, i32, i32, double, i32, i32, i32, ptr, ptr, [8 x i8], %struct.dt_image_t, i32, i32, %struct.dt_pthread_mutex_t, i32, ptr, i32, ptr, i32, ptr, ptr, i32, ptr, ptr, ptr, ptr, i32, i32, ptr, ptr, ptr, ptr, i32, i32, i32, float, float, ptr, i32, %struct.anon.8, %struct.dt_dev_chroma_t, %struct.anon.11, %struct.anon.12, %struct.anon.13, %struct.anon.14, %struct.anon.15, %struct.anon.16, ptr, ptr, %struct.dt_dev_viewport_t, %struct.dt_dev_viewport_t, i32, i32, i32, ptr, [8 x i8] }
%struct.dt_image_t = type { i32, i32, float, float, float, float, float, float, float, [64 x i8], [64 x i8], [128 x i8], [64 x i8], [64 x i8], [64 x i8], [64 x i8], i64, i32, %union.dt_image_correction_data_t, [64 x i8], [64 x i8], [64 x i8], [128 x i8], i32, [256 x i8], i32, i32, i32, i32, i32, i32, i32, i32, i32, i32, float, i32, i32, i32, i32, i32, i32, i64, i64, i64, i64, i32, [12 x i8], %struct.dt_iop_buffer_dsc_t, [9 x float], ptr, i32, i32, %struct.dt_image_raw_parameters_t, %struct.dt_image_geoloc_t, %struct._color_harmony_t, i16, [4 x i16], i32, i32, float, float, [4 x float], [4 x [3 x float]], [4 x float], ptr, ptr, i32, i32, [8 x i8] }
%union.dt_image_correction_data_t = type { %struct.anon.3 }
%struct.anon.3 = type { i32, float, [11 x float], [11 x float], [11 x float], [11 x float], [11 x float] }
%struct.dt_iop_buffer_dsc_t = type { i32, i32, i32, [6 x [6 x i8]], %struct.anon.6, [12 x i8], %struct.anon.7, [4 x float], i32, [12 x i8] }
%struct.anon.6 = type { i16, i16 }
%struct.anon.7 = type { i32, [12 x i8], [4 x float] }
%struct.dt_image_raw_parameters_t = type { i32 }
%struct.dt_image_geoloc_t = type { double, double, double }
%struct._color_harmony_t = type { i32, i32, i32 }
%struct.anon.8 = type { %struct.dt_dev_proxy_exposure_t, ptr, %struct.anon.9, %struct.anon.10 }
%struct.dt_dev_proxy_exposure_t = type { ptr, ptr, ptr, ptr }
%struct.anon.9 = type { ptr, ptr, ptr, ptr, ptr, ptr, ptr, ptr, ptr }
%struct.anon.10 = type { ptr, ptr, ptr, ptr, ptr }
%struct.dt_dev_chroma_t = type { ptr, ptr, [4 x double], [4 x double], [4 x double], i32 }
%struct.anon.11 = type { ptr, ptr, ptr }
%struct.anon.12 = type { ptr, ptr, i32, i32, float, float, i32 }
%struct.anon.13 = type { ptr, ptr, i32, i32, i32, float }
%struct.anon.14 = type { ptr }
%struct.anon.15 = type { ptr, i32 }
%struct.anon.16 = type { ptr, ptr, ptr }
%struct.dt_dev_viewport_t = type { ptr, i32, i32, i32, i32, i32, double, double, double, i32, i32, i32, float, float, float, ptr }
%struct._GdkEventScroll = type { i32, ptr, i8, i32, double, double, i32, i32, ptr, double, double, double, double, i8 }

@darktable = external global %struct.darktable_t, align 8

; Function Attrs: nounwind uwtable
define internal void @_turn_select_region_off(ptr noundef %0) #0 {
  %2 = alloca ptr, align 8
  %3 = alloca ptr, align 8
  store ptr %0, ptr %2, align 8, !tbaa !6
  call void @llvm.lifetime.start.p0(i64 8, ptr %3) #13
  %4 = load ptr, ptr %2, align 8, !tbaa !6
  %5 = getelementptr inbounds nuw %struct.dt_iop_module_t, ptr %4, i32 0, i32 83
  %6 = load ptr, ptr %5, align 16, !tbaa !21
  store ptr %6, ptr %3, align 8, !tbaa !37
  %7 = load ptr, ptr %3, align 8, !tbaa !37
  %8 = icmp ne ptr %7, null
  br i1 %8, label %9, label %22

9:                                                ; preds = %1
  %10 = load ptr, ptr %3, align 8, !tbaa !37
  %11 = getelementptr inbounds nuw %struct.dt_iop_rgblevels_gui_data_t, ptr %10, i32 0, i32 8
  store i32 0, ptr %11, align 4, !tbaa !39
  %12 = load ptr, ptr %3, align 8, !tbaa !37
  %13 = getelementptr inbounds nuw %struct.dt_iop_rgblevels_gui_data_t, ptr %12, i32 0, i32 14
  store i32 0, ptr %13, align 8, !tbaa !44
  %14 = load ptr, ptr %3, align 8, !tbaa !37
  %15 = getelementptr inbounds nuw %struct.dt_iop_rgblevels_gui_data_t, ptr %14, i32 0, i32 6
  %16 = load ptr, ptr %15, align 8, !tbaa !148
  %17 = call i64 @gtk_toggle_button_get_type() #14
  %18 = call ptr @g_type_check_instance_cast(ptr noundef %16, i64 noundef %17)
  %19 = load ptr, ptr %3, align 8, !tbaa !37
  %20 = getelementptr inbounds nuw %struct.dt_iop_rgblevels_gui_data_t, ptr %19, i32 0, i32 8
  %21 = load i32, ptr %20, align 4, !tbaa !39
  call void @gtk_toggle_button_set_active(ptr noundef %18, i32 noundef %21)
  br label %22

22:                                               ; preds = %9, %1
  call void @llvm.lifetime.end.p0(i64 8, ptr %3) #13
  ret void
}

; Function Attrs: nounwind uwtable
define internal void @_turn_selregion_picker_off(ptr noundef %0) #0 {
  %2 = alloca ptr, align 8
  store ptr %0, ptr %2, align 8, !tbaa !6
  %3 = load ptr, ptr %2, align 8, !tbaa !6
  call void @_turn_select_region_off(ptr noundef %3)
  %4 = load ptr, ptr %2, align 8, !tbaa !6
  call void @dt_iop_color_picker_reset(ptr noundef %4, i32 noundef 1)
  ret void
}

; Function Attrs: nounwind uwtable
define internal i32 @_area_scroll_callback(ptr noundef %0, ptr noundef %1, ptr noundef %2) #0 {
  %4 = alloca i32, align 4
  %5 = alloca ptr, align 8
  %6 = alloca ptr, align 8
  %7 = alloca ptr, align 8
  %8 = alloca ptr, align 8
  %9 = alloca ptr, align 8
  %10 = alloca i32, align 4
  %11 = alloca float, align 4
  %12 = alloca i32, align 4
  %13 = alloca float, align 4
  store ptr %0, ptr %5, align 8, !tbaa !123
  store ptr %1, ptr %6, align 8, !tbaa !227
  store ptr %2, ptr %7, align 8, !tbaa !6
  call void @llvm.lifetime.start.p0(i64 8, ptr %8) #13
  %14 = load ptr, ptr %7, align 8, !tbaa !6
  %15 = getelementptr inbounds nuw %struct.dt_iop_module_t, ptr %14, i32 0, i32 83
  %16 = load ptr, ptr %15, align 16, !tbaa !21
  store ptr %16, ptr %8, align 8, !tbaa !37
  call void @llvm.lifetime.start.p0(i64 8, ptr %9) #13
  %17 = load ptr, ptr %7, align 8, !tbaa !6
  %18 = getelementptr inbounds nuw %struct.dt_iop_module_t, ptr %17, i32 0, i32 80
  %19 = load ptr, ptr %18, align 8, !tbaa !125
  store ptr %19, ptr %9, align 8, !tbaa !126
  %20 = load ptr, ptr %6, align 8, !tbaa !227
  %21 = call i32 @dt_gui_ignore_scroll(ptr noundef %20)
  %22 = icmp ne i32 %21, 0
  br i1 %22, label %23, label %24

23:                                               ; preds = %3
  store i32 0, ptr %4, align 4
  store i32 1, ptr %10, align 4
  br label %88

24:                                               ; preds = %3
  %25 = load ptr, ptr %7, align 8, !tbaa !6
  call void @_turn_selregion_picker_off(ptr noundef %25)
  %26 = load ptr, ptr %8, align 8, !tbaa !37
  %27 = getelementptr inbounds nuw %struct.dt_iop_rgblevels_gui_data_t, ptr %26, i32 0, i32 17
  %28 = load i32, ptr %27, align 8, !tbaa !169
  %29 = icmp ne i32 %28, 0
  br i1 %29, label %30, label %31

30:                                               ; preds = %24
  store i32 0, ptr %4, align 4
  store i32 1, ptr %10, align 4
  br label %88

31:                                               ; preds = %24
  %32 = load ptr, ptr getelementptr inbounds nuw (%struct.darktable_t, ptr @darktable, i32 0, i32 9), align 8, !tbaa !51
  %33 = getelementptr inbounds nuw %struct.dt_develop_t, ptr %32, i32 0, i32 15
  %34 = load ptr, ptr %33, align 8, !tbaa !208
  %35 = load ptr, ptr %7, align 8, !tbaa !6
  %36 = icmp ne ptr %34, %35
  br i1 %36, label %37, label %39

37:                                               ; preds = %31
  %38 = load ptr, ptr %7, align 8, !tbaa !6
  call void @dt_iop_request_focus(ptr noundef %38)
  br label %39

39:                                               ; preds = %37, %31
  call void @llvm.lifetime.start.p0(i64 4, ptr %11) #13
  %40 = load ptr, ptr %5, align 8, !tbaa !123
  %41 = load ptr, ptr %6, align 8, !tbaa !227
  %42 = getelementptr inbounds nuw %struct._GdkEventScroll, ptr %41, i32 0, i32 6
  %43 = load i32, ptr %42, align 8, !tbaa !229
  %44 = call reassoc nsz arcp contract afn float @dt_accel_get_speed_multiplier(ptr noundef %40, i32 noundef %43)
  %45 = fpext reassoc nsz arcp contract afn float %44 to double
  %46 = fmul reassoc nsz arcp contract afn double 2.000000e-03, %45
  %47 = fptrunc reassoc nsz arcp contract afn double %46 to float
  store float %47, ptr %11, align 4, !tbaa !15
  call void @llvm.lifetime.start.p0(i64 4, ptr %12) #13
  %48 = load ptr, ptr %6, align 8, !tbaa !227
  %49 = call i32 @dt_gui_get_scroll_unit_delta(ptr noundef %48, ptr noundef %12)
  %50 = icmp ne i32 %49, 0
  br i1 %50, label %51, label %86

51:                                               ; preds = %39
  call void @llvm.lifetime.start.p0(i64 4, ptr %13) #13
  %52 = load ptr, ptr %9, align 8, !tbaa !126
  %53 = getelementptr inbounds nuw %struct.dt_iop_rgblevels_params_t, ptr %52, i32 0, i32 2
  %54 = load ptr, ptr %8, align 8, !tbaa !37
  %55 = getelementptr inbounds nuw %struct.dt_iop_rgblevels_gui_data_t, ptr %54, i32 0, i32 20
  %56 = load i32, ptr %55, align 4, !tbaa !129
  %57 = zext i32 %56 to i64
  %58 = getelementptr inbounds nuw [3 x [3 x float]], ptr %53, i64 0, i64 %57
  %59 = load ptr, ptr %8, align 8, !tbaa !37
  %60 = getelementptr inbounds nuw %struct.dt_iop_rgblevels_gui_data_t, ptr %59, i32 0, i32 18
  %61 = load i32, ptr %60, align 4, !tbaa !188
  %62 = sext i32 %61 to i64
  %63 = getelementptr inbounds [3 x float], ptr %58, i64 0, i64 %62
  %64 = load float, ptr %63, align 4, !tbaa !15
  %65 = load float, ptr %11, align 4, !tbaa !15
  %66 = load i32, ptr %12, align 4, !tbaa !19
  %67 = sitofp i32 %66 to float
  %68 = fmul reassoc nsz arcp contract afn float %65, %67
  %69 = fsub reassoc nsz arcp contract afn float %64, %68
  store float %69, ptr %13, align 4, !tbaa !15
  %70 = load ptr, ptr %7, align 8, !tbaa !6
  %71 = load ptr, ptr %8, align 8, !tbaa !37
  %72 = getelementptr inbounds nuw %struct.dt_iop_rgblevels_gui_data_t, ptr %71, i32 0, i32 18
  %73 = load i32, ptr %72, align 4, !tbaa !188
  %74 = load float, ptr %13, align 4, !tbaa !15
  %75 = load ptr, ptr %9, align 8, !tbaa !126
  %76 = getelementptr inbounds nuw %struct.dt_iop_rgblevels_params_t, ptr %75, i32 0, i32 2
  %77 = load ptr, ptr %8, align 8, !tbaa !37
  %78 = getelementptr inbounds nuw %struct.dt_iop_rgblevels_gui_data_t, ptr %77, i32 0, i32 20
  %79 = load i32, ptr %78, align 4, !tbaa !129
  %80 = zext i32 %79 to i64
  %81 = getelementptr inbounds nuw [3 x [3 x float]], ptr %76, i64 0, i64 %80
  %82 = getelementptr inbounds [3 x float], ptr %81, i64 0, i64 0
  %83 = load ptr, ptr %8, align 8, !tbaa !37
  %84 = getelementptr inbounds nuw %struct.dt_iop_rgblevels_gui_data_t, ptr %83, i32 0, i32 19
  %85 = load float, ptr %84, align 8, !tbaa !162
  call void @_rgblevels_move_handle(ptr noundef %70, i32 noundef %73, float noundef %74, ptr noundef %82, float noundef %85)
  store i32 1, ptr %4, align 4
  store i32 1, ptr %10, align 4
  call void @llvm.lifetime.end.p0(i64 4, ptr %13) #13
  br label %87

86:                                               ; preds = %39
  store i32 1, ptr %4, align 4
  store i32 1, ptr %10, align 4
  br label %87

87:                                               ; preds = %86, %51
  call void @llvm.lifetime.end.p0(i64 4, ptr %12) #13
  call void @llvm.lifetime.end.p0(i64 4, ptr %11) #13
  br label %88

88:                                               ; preds = %87, %30, %23
  call void @llvm.lifetime.end.p0(i64 8, ptr %9) #13
  call void @llvm.lifetime.end.p0(i64 8, ptr %8) #13
  %89 = load i32, ptr %4, align 4
  ret i32 %89
}