; Function Attrs: nounwind uwtable
define internal range(i32 0, 2) i32 @_area_scroll_callback(ptr noundef %0, ptr noundef %1, ptr noundef %2) #1 {
  %4 = alloca i32, align 4
  %5 = getelementptr inbounds nuw i8, ptr %2, i64 704
  %6 = load ptr, ptr %5, align 16, !tbaa !6
  %7 = getelementptr inbounds nuw i8, ptr %2, i64 680
  %8 = load ptr, ptr %7, align 8, !tbaa !114
  %9 = tail call i32 @dt_gui_ignore_scroll(ptr noundef %1) #21
  %.not = icmp eq i32 %9, 0
  br i1 %.not, label %10, label %52

10:                                               ; preds = %3
  %.val.i = load ptr, ptr %5, align 16, !tbaa !6
  %.not.i.i = icmp eq ptr %.val.i, null
  br i1 %.not.i.i, label %_turn_selregion_picker_off.exit, label %11

11:                                               ; preds = %10
  %12 = getelementptr inbounds nuw i8, ptr %.val.i, i64 100
  store i32 0, ptr %12, align 4, !tbaa !27
  %13 = getelementptr inbounds nuw i8, ptr %.val.i, i64 136
  store i32 0, ptr %13, align 8, !tbaa !34
  %14 = getelementptr inbounds nuw i8, ptr %.val.i, i64 88
  %15 = load ptr, ptr %14, align 8, !tbaa !113
  %16 = tail call i64 @gtk_toggle_button_get_type() #23
  %17 = tail call ptr @g_type_check_instance_cast(ptr noundef %15, i64 noundef %16) #21
  %18 = load i32, ptr %12, align 4, !tbaa !27
  tail call void @gtk_toggle_button_set_active(ptr noundef %17, i32 noundef %18) #21
  br label %_turn_selregion_picker_off.exit

_turn_selregion_picker_off.exit:                  ; preds = %10, %11
  tail call void @dt_iop_color_picker_reset(ptr noundef nonnull %2, i32 noundef 1) #21
  %19 = getelementptr inbounds nuw i8, ptr %6, i64 160
  %20 = load i32, ptr %19, align 8, !tbaa !148
  %.not21 = icmp eq i32 %20, 0
  br i1 %.not21, label %21, label %52

21:                                               ; preds = %_turn_selregion_picker_off.exit
  %22 = load ptr, ptr getelementptr inbounds nuw (i8, ptr @darktable, i64 64), align 8, !tbaa !42
  %23 = getelementptr inbounds nuw i8, ptr %22, i64 88
  %24 = load ptr, ptr %23, align 8, !tbaa !184
  %.not22 = icmp eq ptr %24, %2
  br i1 %.not22, label %26, label %25

25:                                               ; preds = %21
  tail call void @dt_iop_request_focus(ptr noundef nonnull %2) #21
  br label %26

26:                                               ; preds = %25, %21
  %27 = getelementptr inbounds nuw i8, ptr %1, i64 40
  %28 = load i32, ptr %27, align 8, !tbaa !199
  %29 = tail call reassoc nsz arcp contract afn float @dt_accel_get_speed_multiplier(ptr noundef %0, i32 noundef %28) #21
  call void @llvm.lifetime.start.p0(i64 4, ptr nonnull %4) #21
  %30 = call i32 @dt_gui_get_scroll_unit_delta(ptr noundef %1, ptr noundef nonnull %4) #21
  %.not23 = icmp eq i32 %30, 0
  br i1 %.not23, label %51, label %31

31:                                               ; preds = %26
  %32 = fpext reassoc nsz arcp contract afn float %29 to double
  %33 = fmul reassoc nsz arcp contract afn double %32, 2.000000e-03
  %34 = fptrunc reassoc nsz arcp contract afn double %33 to float
  %35 = getelementptr inbounds nuw i8, ptr %8, i64 8
  %36 = getelementptr inbounds nuw i8, ptr %6, i64 172
  %37 = load i32, ptr %36, align 4, !tbaa !116
  %38 = zext i32 %37 to i64
  %39 = getelementptr inbounds nuw [3 x [3 x float]], ptr %35, i64 0, i64 %38
  %40 = getelementptr inbounds nuw i8, ptr %6, i64 164
  %41 = load i32, ptr %40, align 4, !tbaa !166
  %42 = sext i32 %41 to i64
  %43 = getelementptr inbounds [3 x [3 x float]], ptr %35, i64 0, i64 %38, i64 %42
  %44 = load float, ptr %43, align 4, !tbaa !37
  %45 = load i32, ptr %4, align 4, !tbaa !177
  %46 = sitofp i32 %45 to float
  %47 = fmul reassoc nsz arcp contract afn float %46, %34
  %48 = fsub reassoc nsz arcp contract afn float %44, %47
  %49 = getelementptr inbounds nuw i8, ptr %6, i64 168
  %50 = load float, ptr %49, align 8, !tbaa !142
  call fastcc void @_rgblevels_move_handle(ptr noundef nonnull %2, i32 noundef %41, float noundef %48, ptr noundef nonnull %39, float noundef %50)
  br label %51

51:                                               ; preds = %26, %31
  call void @llvm.lifetime.end.p0(i64 4, ptr nonnull %4) #21
  br label %52

52:                                               ; preds = %_turn_selregion_picker_off.exit, %3, %51
  %.0 = phi i32 [ 1, %51 ], [ 0, %3 ], [ 0, %_turn_selregion_picker_off.exit ]
  ret i32 %.0
}